; Function Attrs: nounwind uwtable
define ptr @l_Lean_Meta_substCore___lambda__15___boxed(ptr noundef readonly captures(none) %0) local_unnamed_addr #0 {
  %2 = load ptr, ptr %0, align 8, !tbaa !11
  %3 = getelementptr inbounds nuw i8, ptr %0, i64 8
  %4 = load ptr, ptr %3, align 8, !tbaa !11
  %5 = getelementptr inbounds nuw i8, ptr %0, i64 16
  %6 = load ptr, ptr %5, align 8, !tbaa !11
  %7 = getelementptr inbounds nuw i8, ptr %0, i64 24
  %8 = load ptr, ptr %7, align 8, !tbaa !11
  %9 = getelementptr inbounds nuw i8, ptr %0, i64 32
  %10 = load ptr, ptr %9, align 8, !tbaa !11
  %11 = getelementptr inbounds nuw i8, ptr %0, i64 40
  %12 = load ptr, ptr %11, align 8, !tbaa !11
  %13 = getelementptr inbounds nuw i8, ptr %0, i64 48
  %14 = load ptr, ptr %13, align 8, !tbaa !11
  %15 = getelementptr inbounds nuw i8, ptr %0, i64 56
  %16 = load ptr, ptr %15, align 8, !tbaa !11
  %17 = getelementptr inbounds nuw i8, ptr %0, i64 64
  %18 = load ptr, ptr %17, align 8, !tbaa !11
  %19 = getelementptr inbounds nuw i8, ptr %0, i64 72
  %20 = load ptr, ptr %19, align 8, !tbaa !11
  %21 = getelementptr inbounds nuw i8, ptr %0, i64 80
  %22 = load ptr, ptr %21, align 8, !tbaa !11
  %23 = getelementptr inbounds nuw i8, ptr %0, i64 88
  %24 = load ptr, ptr %23, align 8, !tbaa !11
  %25 = getelementptr inbounds nuw i8, ptr %0, i64 96
  %26 = load ptr, ptr %25, align 8, !tbaa !11
  %27 = getelementptr inbounds nuw i8, ptr %0, i64 104
  %28 = load ptr, ptr %27, align 8, !tbaa !11
  %29 = getelementptr inbounds nuw i8, ptr %0, i64 112
  %30 = load ptr, ptr %29, align 8, !tbaa !11
  %31 = getelementptr inbounds nuw i8, ptr %0, i64 120
  %32 = load ptr, ptr %31, align 8, !tbaa !11
  %33 = getelementptr inbounds nuw i8, ptr %0, i64 128
  %34 = load ptr, ptr %33, align 8, !tbaa !11
  %35 = getelementptr inbounds nuw i8, ptr %0, i64 136
  %36 = load ptr, ptr %35, align 8, !tbaa !11
  %37 = getelementptr inbounds nuw i8, ptr %0, i64 144
  %38 = load ptr, ptr %37, align 8, !tbaa !11
  %39 = getelementptr inbounds nuw i8, ptr %0, i64 152
  %40 = load ptr, ptr %39, align 8, !tbaa !11
  %41 = ptrtoint ptr %18 to i64
  %42 = and i64 %41, 1
  %.not = icmp eq i64 %42, 0
  br i1 %.not, label %43, label %lean_dec.exit47

43:                                               ; preds = %1
  %44 = load i32, ptr %18, align 4, !tbaa !5
  %45 = icmp sgt i32 %44, 1
  br i1 %45, label %46, label %48, !prof !10

46:                                               ; preds = %43
  %47 = add nsw i32 %44, -1
  store i32 %47, ptr %18, align 4, !tbaa !5
  br label %lean_dec.exit47

48:                                               ; preds = %43
  %.not.i = icmp eq i32 %44, 0
  br i1 %.not.i, label %lean_dec.exit47, label %49

49:                                               ; preds = %48
  tail call void @lean_dec_ref_cold(ptr noundef nonnull %18) #4
  br label %lean_dec.exit47

lean_dec.exit47:                                  ; preds = %49, %48, %46, %1
  %50 = ptrtoint ptr %28 to i64
  %51 = and i64 %50, 1
  %.not52 = icmp eq i64 %51, 0
  br i1 %.not52, label %52, label %lean_dec.exit46

52:                                               ; preds = %lean_dec.exit47
  %53 = load i32, ptr %28, align 4, !tbaa !5
  %54 = icmp sgt i32 %53, 1
  br i1 %54, label %55, label %57, !prof !10

55:                                               ; preds = %52
  %56 = add nsw i32 %53, -1
  store i32 %56, ptr %28, align 4, !tbaa !5
  br label %lean_dec.exit46

57:                                               ; preds = %52
  %.not.i48 = icmp eq i32 %53, 0
  br i1 %.not.i48, label %lean_dec.exit46, label %58

58:                                               ; preds = %57
  tail call void @lean_dec_ref_cold(ptr noundef nonnull %28) #4
  br label %lean_dec.exit46

lean_dec.exit46:                                  ; preds = %58, %57, %55, %lean_dec.exit47
  %59 = ptrtoint ptr %30 to i64
  %60 = and i64 %59, 1
  %.not53 = icmp eq i64 %60, 0
  br i1 %.not53, label %61, label %lean_dec.exit

61:                                               ; preds = %lean_dec.exit46
  %62 = load i32, ptr %30, align 4, !tbaa !5
  %63 = icmp sgt i32 %62, 1
  br i1 %63, label %64, label %66, !prof !10

64:                                               ; preds = %61
  %65 = add nsw i32 %62, -1
  store i32 %65, ptr %30, align 4, !tbaa !5
  br label %lean_dec.exit

66:                                               ; preds = %61
  %.not.i50 = icmp eq i32 %62, 0
  br i1 %.not.i50, label %lean_dec.exit, label %67

67:                                               ; preds = %66
  tail call void @lean_dec_ref_cold(ptr noundef nonnull %30) #4
  br label %lean_dec.exit

lean_dec.exit:                                    ; preds = %67, %66, %64, %lean_dec.exit46
  %68 = lshr i64 %59, 1
  %69 = trunc i64 %68 to i8
  %70 = lshr i64 %50, 1
  %71 = trunc i64 %70 to i8
  %72 = lshr i64 %41, 1
  %73 = trunc i64 %72 to i8
  %74 = tail call ptr @l_Lean_Meta_substCore___lambda__15(ptr noundef %2, ptr noundef %4, ptr noundef %6, ptr noundef %8, ptr noundef %10, ptr noundef %12, ptr noundef %14, ptr noundef %16, i8 noundef zeroext %73, ptr noundef %20, ptr noundef %22, ptr noundef %24, ptr noundef %26, i8 noundef zeroext %71, i8 noundef zeroext %69, ptr noundef %32, ptr noundef %34, ptr noundef %36, ptr noundef %38, ptr noundef %40)
  ret ptr %74
}